Certificate:
    Data:
        Version: 3 (0x2)
        Serial Number: 4112 (0x1010)
    Signature Algorithm: sha1WithRSAEncryption
        Issuer: C=US, ST=NY, L=Syracuse, O=Microsoft, OU=UXIT, CN=suravpn.syr.edu/emailAddress=gperi@microsoft.com
        Validity
            Not Before: May  1 06:54:54 2014 GMT
            Not After : May  1 06:54:54 2015 GMT
        Subject: C=US, ST=NY, O=Microsoft, OU=UXIT, CN=suravpn.syr.edu/emailAddress=gperi@microsoft.com
        Subject Public Key Info:
            Public Key Algorithm: rsaEncryption
                Public-Key: (1024 bit)
                Modulus:
                    00:cb:bb:4a:41:09:91:4a:4d:64:2a:5b:27:f8:05:
                    98:64:8f:c2:3f:12:5c:fa:00:2d:9c:f0:87:dd:9f:
                    64:28:30:2b:6e:a5:f3:41:69:08:04:16:22:09:ff:
                    cd:69:85:b8:a0:ac:45:5d:7d:38:b0:61:07:57:a2:
                    59:81:01:93:2a:3e:c7:d0:17:c4:ef:9b:af:cc:77:
                    a5:8b:47:83:20:18:b8:75:40:58:8a:07:37:5f:d0:
                    b9:bd:4e:31:92:ad:df:0c:de:bf:2d:09:db:81:63:
                    9f:50:90:05:6d:33:c1:39:c9:b7:1b:b9:a2:07:23:
                    b2:29:cf:49:ad:40:41:55:a5
                Exponent: 65537 (0x10001)
        X509v3 extensions:
            X509v3 Basic Constraints: 
                CA:FALSE
            Netscape Comment: 
                OpenSSL Generated Certificate
            X509v3 Subject Key Identifier: 
                B4:5C:AF:E6:C1:91:D0:24:58:2B:E4:E7:18:99:F6:54:08:99:85:A0
            X509v3 Authority Key Identifier: 
                keyid:C0:77:98:C7:4F:80:AA:08:8F:A2:D1:CA:12:9B:45:ED:E5:DD:A7:6C

    Signature Algorithm: sha1WithRSAEncryption
         bc:36:7b:92:0b:01:eb:55:37:2a:10:b8:76:93:b0:fe:39:bd:
         c6:82:65:6c:42:70:37:33:b0:75:1c:1a:46:55:7c:fd:a9:26:
         bc:c3:77:29:07:9e:8a:72:1f:57:8e:0e:d7:d6:60:f4:7c:8c:
         35:be:d5:5f:86:b0:08:fe:1c:18:ea:cd:2f:a8:e5:16:32:cf:
         57:bc:5f:af:a3:ab:60:2d:7b:0f:0a:fd:96:3f:61:90:7d:9d:
         42:be:9c:66:e2:00:16:ec:2c:55:b1:88:c3:ab:7a:a9:33:ae:
         a9:e1:b1:4f:20:62:d4:81:12:69:68:20:57:98:f2:6e:89:66:
         11:4f
-----BEGIN CERTIFICATE-----
MIIC/DCCAmWgAwIBAgICEBAwDQYJKoZIhvcNAQEFBQAwgY4xCzAJBgNVBAYTAlVT
MQswCQYDVQQIDAJOWTERMA8GA1UEBwwIU3lyYWN1c2UxEjAQBgNVBAoMCU1pY3Jv
c29mdDENMAsGA1UECwwEVVhJVDEYMBYGA1UEAwwPc3VyYXZwbi5zeXIuZWR1MSIw
IAYJKoZIhvcNAQkBFhNncGVyaUBtaWNyb3NvZnQuY29tMB4XDTE0MDUwMTA2NTQ1
NFoXDTE1MDUwMTA2NTQ1NFowezELMAkGA1UEBhMCVVMxCzAJBgNVBAgMAk5ZMRIw
EAYDVQQKDAlNaWNyb3NvZnQxDTALBgNVBAsMBFVYSVQxGDAWBgNVBAMMD3N1cmF2
cG4uc3lyLmVkdTEiMCAGCSqGSIb3DQEJARYTZ3BlcmlAbWljcm9zb2Z0LmNvbTCB
nzANBgkqhkiG9w0BAQEFAAOBjQAwgYkCgYEAy7tKQQmRSk1kKlsn+AWYZI/CPxJc
+gAtnPCH3Z9kKDArbqXzQWkIBBYiCf/NaYW4oKxFXX04sGEHV6JZgQGTKj7H0BfE
75uvzHeli0eDIBi4dUBYigc3X9C5vU4xkq3fDN6/LQnbgWOfUJAFbTPBOcm3G7mi
ByOyKc9JrUBBVaUCAwEAAaN7MHkwCQYDVR0TBAIwADAsBglghkgBhvhCAQ0EHxYd
T3BlblNTTCBHZW5lcmF0ZWQgQ2VydGlmaWNhdGUwHQYDVR0OBBYEFLRcr+bBkdAk
WCvk5xiZ9lQImYWgMB8GA1UdIwQYMBaAFMB3mMdPgKoIj6LRyhKbRe3l3adsMA0G
CSqGSIb3DQEBBQUAA4GBALw2e5ILAetVNyoQuHaTsP45vcaCZWxCcDczsHUcGkZV
fP2pJrzDdykHnopyH1eODtfWYPR8jDW+1V+GsAj+HBjqzS+o5RYyz1e8X6+jq2At
ew8K/ZY/YZB9nUK+nGbiABbsLFWxiMOreqkzrqnhsU8gYtSBEmloIFeY8m6JZhFP
-----END CERTIFICATE-----
